ccopy_reg
_reconstructor
p0
(csklearn.pipeline
Pipeline
p1
c__builtin__
object
p2
Ntp3
Rp4
(dp5
S'_sklearn_version'
p6
S'0.19.1'
p7
sS'steps'
p8
(lp9
(S'imputer'
p10
g0
(csklearn.preprocessing.imputation
Imputer
p11
g2
Ntp12
Rp13
(dp14
S'verbose'
p15
I0
sS'strategy'
p16
S'mean'
p17
sS'axis'
p18
I0
sS'statistics_'
p19
cnumpy.core.multiarray
_reconstruct
p20
(cnumpy
ndarray
p21
(I0
tp22
S'b'
p23
tp24
Rp25
(I1
(I6
tp26
cnumpy
dtype
p27
(S'f8'
p28
I0
I1
tp29
Rp30
(I3
S'<'
p31
NNNI-1
I-1
I0
tp32
bI00
S'*\x95J%oxIA\xa5S\xf3\xa0c\x94FA\x98n\x12\x83\x04\x93IA\x00\x00\x00\xa0s\xbb!\xc1\xbe\x84\xf6\x12mV2A!z|\x17 \x821A'
p33
tp34
bsg6
g7
sS'copy'
p35
I01
sS'missing_values'
p36
I0
sbtp37
a(S'standardscaler'
p38
g0
(csklearn.preprocessing.data
StandardScaler
p39
g2
Ntp40
Rp41
(dp42
S'mean_'
p43
g20
(g21
(I0
tp44
g23
tp45
Rp46
(I1
(I6
tp47
g30
I00
S')\x95J%oxIA\xa4S\xf3\xa0c\x94FA\x96n\x12\x83\x04\x93IA\x00\x00\x00\xa0s\xbb!\xc1\xba\x84\xf6\x12mV2A#z|\x17 \x821A'
p48
tp49
bsS'with_mean'
p50
I01
sS'var_'
p51
g20
(g21
(I0
tp52
g23
tp53
Rp54
(I1
(I6
tp55
g30
I00
S'F^\xdf\r{\x8e\xc1B\xb7i?\x9a\xb1\xee\xb3B\x8ej\xea\xdcdp\xc1B\x82\x8e\x88\xdc!\x98QB\x95\xe4\xb9\r\x93\x88qB\xfa\xd5<x6\xd2\x8cB'
p56
tp57
bsS'scale_'
p58
g20
(g21
(I0
tp59
g23
tp60
Rp61
(I1
(I6
tp62
g30
I00
S"Xi\xff8\xd9\xb3WA\x93\x0f\xc0\x98\xb8\xdbQA\x88\x98\xa9A\x81\x9fWA'\x90W\xa58\xc7 A\xa4\xda\xf4\xf6\xcb\xbf0AwV\x01Aw^>A"
p63
tp64
bsS'with_std'
p65
I01
sS'n_samples_seen_'
p66
I138
sg6
g7
sg35
I01
sbtp67
a(S'linearsvc'
p68
g0
(csklearn.svm.classes
LinearSVC
p69
g2
Ntp70
Rp71
(dp72
S'loss'
p73
S'squared_hinge'
p74
sS'C'
p75
F0.01
sS'max_iter'
p76
I1000
sg15
I0
sS'fit_intercept'
p77
I01
sS'random_state'
p78
NsS'classes_'
p79
g20
(g21
(I0
tp80
g23
tp81
Rp82
(I1
(I2
tp83
g30
I00
S'\x00\x00\x00\x00\x00\x00\x00\x00\x00\x00\x00\x00\x00\x00\xf0?'
p84
tp85
bsS'n_iter_'
p86
cnumpy.core.multiarray
scalar
p87
(g27
(S'i4'
p88
I0
I1
tp89
Rp90
(I3
S'<'
p91
NNNI-1
I-1
I0
tp92
bS'\x04\x00\x00\x00'
p93
tp94
Rp95
sS'intercept_scaling'
p96
I1
sS'penalty'
p97
S'l2'
p98
sS'multi_class'
p99
S'ovr'
p100
sS'coef_'
p101
g20
(g21
(I0
tp102
g23
tp103
Rp104
(I1
(I1
I6
tp105
g30
I00
S'4\xa9\x1d\xe9\x972w?4`\xfa\xeb\xa4\x9c\xc3?\xea\xec\xef\xf30!r?\xbbz\xcb\xb8`\xa8\xb0\xbf\x18w\x02y\x80\xe8\xb8?1\x92\x81\tT\xd4\x8a?'
p106
tp107
bsg6
g7
sS'dual'
p108
I00
sS'tol'
p109
F0.001
sS'intercept_'
p110
g20
(g21
(I0
tp111
g23
tp112
Rp113
(I1
(I1
tp114
g30
I00
S'\r\xafT\xaa\xd8k\xb3\xbf'
p115
tp116
bsS'class_weight'
p117
S'balanced'
p118
sbtp119
asS'memory'
p120
Nsb.